target datalayout = "e-m:e-p270:32:32-p271:32:32-p272:64:64-i64:64-i128:128-f80:128-n8:16:32:64-S128"
target triple = "x86_64-pc-linux-gnu"

%struct.OptMap = type { %struct.MinMaxLen, %struct.OptAnc, i32, [256 x i8] }
%struct.MinMaxLen = type { i32, i32 }
%struct.OptAnc = type { i32, i32 }
%struct.OptNode = type { %struct.MinMaxLen, %struct.OptAnc, %struct.OptStr, %struct.OptStr, %struct.OptStr, %struct.OptMap }
%struct.OptStr = type { %struct.MinMaxLen, %struct.OptAnc, i32, i32, [24 x i8] }
%struct.OptEnv = type { %struct.MinMaxLen, ptr, i32, ptr }
%struct.OnigEncodingTypeST = type { ptr, ptr, i32, i32, ptr, ptr, ptr, ptr, ptr, ptr, ptr, ptr, ptr, ptr, ptr, ptr, ptr, ptr, ptr, i32, i32, i32 }

@clear_opt_map.clean_info = internal constant %struct.OptMap zeroinitializer, align 4

; Function Attrs: nounwind uwtable
define internal i32 @map_position_value(ptr noundef %0, i32 noundef %1) #0 {
  %3 = alloca i32, align 4
  %4 = alloca ptr, align 8
  %5 = alloca i32, align 4
  store ptr %0, ptr %4, align 8, !tbaa !115
  store i32 %1, ptr %5, align 4, !tbaa !4
  %6 = load i32, ptr %5, align 4, !tbaa !4
  %7 = icmp slt i32 %6, 128
  br i1 %7, label %8, label %23

8:                                                ; preds = %2
  %9 = load i32, ptr %5, align 4, !tbaa !4
  %10 = icmp eq i32 %9, 0
  br i1 %10, label %11, label %17

11:                                               ; preds = %8
  %12 = load ptr, ptr %4, align 8, !tbaa !115
  %13 = getelementptr inbounds nuw %struct.OnigEncodingTypeST, ptr %12, i32 0, i32 3
  %14 = load i32, ptr %13, align 4, !tbaa !137
  %15 = icmp sgt i32 %14, 1
  br i1 %15, label %16, label %17

16:                                               ; preds = %11
  store i32 20, ptr %3, align 4
  br label %24

17:                                               ; preds = %11, %8
  %18 = load i32, ptr %5, align 4, !tbaa !4
  %19 = sext i32 %18 to i64
  %20 = getelementptr inbounds [128 x i16], ptr @map_position_value.Vals, i64 0, i64 %19
  %21 = load i16, ptr %20, align 2, !tbaa !316
  %22 = sext i16 %21 to i32
  store i32 %22, ptr %3, align 4
  br label %24

23:                                               ; preds = %2
  store i32 4, ptr %3, align 4
  br label %24

24:                                               ; preds = %23, %17, %16
  %25 = load i32, ptr %3, align 4
  ret i32 %25
}

; Function Attrs: nounwind uwtable
define internal void @clear_opt_map(ptr noundef %0) #0 {
  %2 = alloca ptr, align 8
  store ptr %0, ptr %2, align 8, !tbaa !15
  %3 = load ptr, ptr %2, align 8, !tbaa !15
  call void @llvm.memcpy.p0.p0.i64(ptr align 4 %3, ptr align 4 @clear_opt_map.clean_info, i64 276, i1 false)
  ret void
}

; Function Attrs: nounwind uwtable
define internal void @mml_alt_merge(ptr noundef %0, ptr noundef %1) #0 {
  %3 = alloca ptr, align 8
  %4 = alloca ptr, align 8
  store ptr %0, ptr %3, align 8, !tbaa !15
  store ptr %1, ptr %4, align 8, !tbaa !15
  %5 = load ptr, ptr %3, align 8, !tbaa !15
  %6 = getelementptr inbounds nuw %struct.MinMaxLen, ptr %5, i32 0, i32 0
  %7 = load i32, ptr %6, align 4, !tbaa !274
  %8 = load ptr, ptr %4, align 8, !tbaa !15
  %9 = getelementptr inbounds nuw %struct.MinMaxLen, ptr %8, i32 0, i32 0
  %10 = load i32, ptr %9, align 4, !tbaa !274
  %11 = icmp ugt i32 %7, %10
  br i1 %11, label %12, label %18

12:                                               ; preds = %2
  %13 = load ptr, ptr %4, align 8, !tbaa !15
  %14 = getelementptr inbounds nuw %struct.MinMaxLen, ptr %13, i32 0, i32 0
  %15 = load i32, ptr %14, align 4, !tbaa !274
  %16 = load ptr, ptr %3, align 8, !tbaa !15
  %17 = getelementptr inbounds nuw %struct.MinMaxLen, ptr %16, i32 0, i32 0
  store i32 %15, ptr %17, align 4, !tbaa !274
  br label %18

18:                                               ; preds = %12, %2
  %19 = load ptr, ptr %3, align 8, !tbaa !15
  %20 = getelementptr inbounds nuw %struct.MinMaxLen, ptr %19, i32 0, i32 1
  %21 = load i32, ptr %20, align 4, !tbaa !273
  %22 = load ptr, ptr %4, align 8, !tbaa !15
  %23 = getelementptr inbounds nuw %struct.MinMaxLen, ptr %22, i32 0, i32 1
  %24 = load i32, ptr %23, align 4, !tbaa !273
  %25 = icmp ult i32 %21, %24
  br i1 %25, label %26, label %32

26:                                               ; preds = %18
  %27 = load ptr, ptr %4, align 8, !tbaa !15
  %28 = getelementptr inbounds nuw %struct.MinMaxLen, ptr %27, i32 0, i32 1
  %29 = load i32, ptr %28, align 4, !tbaa !273
  %30 = load ptr, ptr %3, align 8, !tbaa !15
  %31 = getelementptr inbounds nuw %struct.MinMaxLen, ptr %30, i32 0, i32 1
  store i32 %29, ptr %31, align 4, !tbaa !273
  br label %32

32:                                               ; preds = %26, %18
  ret void
}

; Function Attrs: nounwind uwtable
define internal void @alt_merge_opt_map(ptr noundef %0, ptr noundef %1, ptr noundef %2) #0 {
  %4 = alloca ptr, align 8
  %5 = alloca ptr, align 8
  %6 = alloca ptr, align 8
  %7 = alloca i32, align 4
  %8 = alloca i32, align 4
  %9 = alloca i32, align 4
  store ptr %0, ptr %4, align 8, !tbaa !115
  store ptr %1, ptr %5, align 8, !tbaa !15
  store ptr %2, ptr %6, align 8, !tbaa !15
  call void @llvm.lifetime.start.p0(i64 4, ptr %7) #9
  call void @llvm.lifetime.start.p0(i64 4, ptr %8) #9
  %10 = load ptr, ptr %5, align 8, !tbaa !15
  %11 = getelementptr inbounds nuw %struct.OptMap, ptr %10, i32 0, i32 2
  %12 = load i32, ptr %11, align 4, !tbaa !290
  %13 = icmp eq i32 %12, 0
  br i1 %13, label %14, label %15

14:                                               ; preds = %3
  store i32 1, ptr %9, align 4
  br label %80

15:                                               ; preds = %3
  %16 = load ptr, ptr %6, align 8, !tbaa !15
  %17 = getelementptr inbounds nuw %struct.OptMap, ptr %16, i32 0, i32 2
  %18 = load i32, ptr %17, align 4, !tbaa !290
  %19 = icmp eq i32 %18, 0
  br i1 %19, label %30, label %20

20:                                               ; preds = %15
  %21 = load ptr, ptr %5, align 8, !tbaa !15
  %22 = getelementptr inbounds nuw %struct.OptMap, ptr %21, i32 0, i32 0
  %23 = getelementptr inbounds nuw %struct.MinMaxLen, ptr %22, i32 0, i32 1
  %24 = load i32, ptr %23, align 4, !tbaa !298
  %25 = load ptr, ptr %6, align 8, !tbaa !15
  %26 = getelementptr inbounds nuw %struct.OptMap, ptr %25, i32 0, i32 0
  %27 = getelementptr inbounds nuw %struct.MinMaxLen, ptr %26, i32 0, i32 0
  %28 = load i32, ptr %27, align 4, !tbaa !297
  %29 = icmp ult i32 %24, %28
  br i1 %29, label %30, label %32

30:                                               ; preds = %20, %15
  %31 = load ptr, ptr %5, align 8, !tbaa !15
  call void @clear_opt_map(ptr noundef %31)
  store i32 1, ptr %9, align 4
  br label %80

32:                                               ; preds = %20
  %33 = load ptr, ptr %5, align 8, !tbaa !15
  %34 = getelementptr inbounds nuw %struct.OptMap, ptr %33, i32 0, i32 0
  %35 = load ptr, ptr %6, align 8, !tbaa !15
  %36 = getelementptr inbounds nuw %struct.OptMap, ptr %35, i32 0, i32 0
  call void @mml_alt_merge(ptr noundef %34, ptr noundef %36)
  store i32 0, ptr %8, align 4, !tbaa !4
  store i32 0, ptr %7, align 4, !tbaa !4
  br label %37

37:                                               ; preds = %69, %32
  %38 = load i32, ptr %7, align 4, !tbaa !4
  %39 = icmp slt i32 %38, 256
  br i1 %39, label %40, label %72

40:                                               ; preds = %37
  %41 = load ptr, ptr %6, align 8, !tbaa !15
  %42 = getelementptr inbounds nuw %struct.OptMap, ptr %41, i32 0, i32 3
  %43 = load i32, ptr %7, align 4, !tbaa !4
  %44 = sext i32 %43 to i64
  %45 = getelementptr inbounds [256 x i8], ptr %42, i64 0, i64 %44
  %46 = load i8, ptr %45, align 1, !tbaa !32
  %47 = icmp ne i8 %46, 0
  br i1 %47, label %48, label %54

48:                                               ; preds = %40
  %49 = load ptr, ptr %5, align 8, !tbaa !15
  %50 = getelementptr inbounds nuw %struct.OptMap, ptr %49, i32 0, i32 3
  %51 = load i32, ptr %7, align 4, !tbaa !4
  %52 = sext i32 %51 to i64
  %53 = getelementptr inbounds [256 x i8], ptr %50, i64 0, i64 %52
  store i8 1, ptr %53, align 1, !tbaa !32
  br label %54

54:                                               ; preds = %48, %40
  %55 = load ptr, ptr %5, align 8, !tbaa !15
  %56 = getelementptr inbounds nuw %struct.OptMap, ptr %55, i32 0, i32 3
  %57 = load i32, ptr %7, align 4, !tbaa !4
  %58 = sext i32 %57 to i64
  %59 = getelementptr inbounds [256 x i8], ptr %56, i64 0, i64 %58
  %60 = load i8, ptr %59, align 1, !tbaa !32
  %61 = icmp ne i8 %60, 0
  br i1 %61, label %62, label %68

62:                                               ; preds = %54
  %63 = load ptr, ptr %4, align 8, !tbaa !115
  %64 = load i32, ptr %7, align 4, !tbaa !4
  %65 = call i32 @map_position_value(ptr noundef %63, i32 noundef %64)
  %66 = load i32, ptr %8, align 4, !tbaa !4
  %67 = add nsw i32 %66, %65
  store i32 %67, ptr %8, align 4, !tbaa !4
  br label %68

68:                                               ; preds = %62, %54
  br label %69

69:                                               ; preds = %68
  %70 = load i32, ptr %7, align 4, !tbaa !4
  %71 = add nsw i32 %70, 1
  store i32 %71, ptr %7, align 4, !tbaa !4
  br label %37, !llvm.loop !321

72:                                               ; preds = %37
  %73 = load i32, ptr %8, align 4, !tbaa !4
  %74 = load ptr, ptr %5, align 8, !tbaa !15
  %75 = getelementptr inbounds nuw %struct.OptMap, ptr %74, i32 0, i32 2
  store i32 %73, ptr %75, align 4, !tbaa !290
  %76 = load ptr, ptr %5, align 8, !tbaa !15
  %77 = getelementptr inbounds nuw %struct.OptMap, ptr %76, i32 0, i32 1
  %78 = load ptr, ptr %6, align 8, !tbaa !15
  %79 = getelementptr inbounds nuw %struct.OptMap, ptr %78, i32 0, i32 1
  call void @alt_merge_opt_anc_info(ptr noundef %77, ptr noundef %79)
  store i32 0, ptr %9, align 4
  br label %80

80:                                               ; preds = %72, %30, %14
  call void @llvm.lifetime.end.p0(i64 4, ptr %8) #9
  call void @llvm.lifetime.end.p0(i64 4, ptr %7) #9
  %81 = load i32, ptr %9, align 4
  switch i32 %81, label %83 [
    i32 0, label %82
    i32 1, label %82
  ]

82:                                               ; preds = %80, %80
  ret void

83:                                               ; preds = %80
  unreachable
}

; Function Attrs: nounwind uwtable
define internal void @alt_merge_opt_anc_info(ptr noundef %0, ptr noundef %1) #0 {
  %3 = alloca ptr, align 8
  %4 = alloca ptr, align 8
  store ptr %0, ptr %3, align 8, !tbaa !15
  store ptr %1, ptr %4, align 8, !tbaa !15
  %5 = load ptr, ptr %4, align 8, !tbaa !15
  %6 = getelementptr inbounds nuw %struct.OptAnc, ptr %5, i32 0, i32 0
  %7 = load i32, ptr %6, align 4, !tbaa !274
  %8 = load ptr, ptr %3, align 8, !tbaa !15
  %9 = getelementptr inbounds nuw %struct.OptAnc, ptr %8, i32 0, i32 0
  %10 = load i32, ptr %9, align 4, !tbaa !274
  %11 = and i32 %10, %7
  store i32 %11, ptr %9, align 4, !tbaa !274
  %12 = load ptr, ptr %4, align 8, !tbaa !15
  %13 = getelementptr inbounds nuw %struct.OptAnc, ptr %12, i32 0, i32 1
  %14 = load i32, ptr %13, align 4, !tbaa !273
  %15 = load ptr, ptr %3, align 8, !tbaa !15
  %16 = getelementptr inbounds nuw %struct.OptAnc, ptr %15, i32 0, i32 1
  %17 = load i32, ptr %16, align 4, !tbaa !273
  %18 = and i32 %17, %14
  store i32 %18, ptr %16, align 4, !tbaa !273
  ret void
}

; Function Attrs: nounwind uwtable
define internal void @alt_merge_node_opt_info(ptr noundef %0, ptr noundef %1, ptr noundef %2) #0 {
  %4 = alloca ptr, align 8
  %5 = alloca ptr, align 8
  %6 = alloca ptr, align 8
  store ptr %0, ptr %4, align 8, !tbaa !15
  store ptr %1, ptr %5, align 8, !tbaa !15
  store ptr %2, ptr %6, align 8, !tbaa !15
  %7 = load ptr, ptr %4, align 8, !tbaa !15
  %8 = getelementptr inbounds nuw %struct.OptNode, ptr %7, i32 0, i32 1
  %9 = load ptr, ptr %5, align 8, !tbaa !15
  %10 = getelementptr inbounds nuw %struct.OptNode, ptr %9, i32 0, i32 1
  call void @alt_merge_opt_anc_info(ptr noundef %8, ptr noundef %10)
  %11 = load ptr, ptr %4, align 8, !tbaa !15
  %12 = getelementptr inbounds nuw %struct.OptNode, ptr %11, i32 0, i32 2
  %13 = load ptr, ptr %5, align 8, !tbaa !15
  %14 = getelementptr inbounds nuw %struct.OptNode, ptr %13, i32 0, i32 2
  %15 = load ptr, ptr %6, align 8, !tbaa !15
  call void @alt_merge_opt_exact(ptr noundef %12, ptr noundef %14, ptr noundef %15)
  %16 = load ptr, ptr %4, align 8, !tbaa !15
  %17 = getelementptr inbounds nuw %struct.OptNode, ptr %16, i32 0, i32 3
  %18 = load ptr, ptr %5, align 8, !tbaa !15
  %19 = getelementptr inbounds nuw %struct.OptNode, ptr %18, i32 0, i32 3
  %20 = load ptr, ptr %6, align 8, !tbaa !15
  call void @alt_merge_opt_exact(ptr noundef %17, ptr noundef %19, ptr noundef %20)
  %21 = load ptr, ptr %4, align 8, !tbaa !15
  %22 = getelementptr inbounds nuw %struct.OptNode, ptr %21, i32 0, i32 4
  %23 = load ptr, ptr %5, align 8, !tbaa !15
  %24 = getelementptr inbounds nuw %struct.OptNode, ptr %23, i32 0, i32 4
  %25 = load ptr, ptr %6, align 8, !tbaa !15
  call void @alt_merge_opt_exact(ptr noundef %22, ptr noundef %24, ptr noundef %25)
  %26 = load ptr, ptr %6, align 8, !tbaa !15
  %27 = getelementptr inbounds nuw %struct.OptEnv, ptr %26, i32 0, i32 1
  %28 = load ptr, ptr %27, align 8, !tbaa !79
  %29 = load ptr, ptr %4, align 8, !tbaa !15
  %30 = getelementptr inbounds nuw %struct.OptNode, ptr %29, i32 0, i32 5
  %31 = load ptr, ptr %5, align 8, !tbaa !15
  %32 = getelementptr inbounds nuw %struct.OptNode, ptr %31, i32 0, i32 5
  call void @alt_merge_opt_map(ptr noundef %28, ptr noundef %30, ptr noundef %32)
  %33 = load ptr, ptr %4, align 8, !tbaa !15
  %34 = getelementptr inbounds nuw %struct.OptNode, ptr %33, i32 0, i32 0
  %35 = load ptr, ptr %5, align 8, !tbaa !15
  %36 = getelementptr inbounds nuw %struct.OptNode, ptr %35, i32 0, i32 0
  call void @mml_alt_merge(ptr noundef %34, ptr noundef %36)
  ret void
}